target datalayout = "e-m:e-p270:32:32-p271:32:32-p272:64:64-i64:64-i128:128-f80:128-n8:16:32:64-S128"
target triple = "x86_64-pc-linux-gnu"

%struct.Qureg = type { i32, i32, i32, i64, i64, i32, i32, %struct.ComplexArray, %struct.ComplexArray, %struct.ComplexArray, ptr, ptr, ptr, ptr, ptr, ptr }
%struct.ComplexArray = type { ptr, ptr }

@.str.12 = private unnamed_addr constant [25 x i8] c"Beginning of QFT circuit\00", align 1
@.str.13 = private unnamed_addr constant [19 x i8] c"End of QFT circuit\00", align 1

; Function Attrs: nounwind uwtable
define void @applyFullQFT(ptr noundef byval(%struct.Qureg) align 8 %0) #0 {
  %2 = alloca [100 x i32], align 16
  %3 = alloca i32, align 4
  call void (ptr, ptr, ...) @qasm_recordComment(ptr noundef byval(%struct.Qureg) align 8 %0, ptr noundef @.str.12)
  call void @llvm.lifetime.start.p0(i64 400, ptr %2) #7
  call void @llvm.lifetime.start.p0(i64 4, ptr %3) #7
  store i32 0, ptr %3, align 4, !tbaa !4
  br label %4

4:                                                ; preds = %15, %1
  %5 = load i32, ptr %3, align 4, !tbaa !4
  %6 = getelementptr inbounds nuw %struct.Qureg, ptr %0, i32 0, i32 1
  %7 = load i32, ptr %6, align 4, !tbaa !18
  %8 = icmp slt i32 %5, %7
  br i1 %8, label %10, label %9

9:                                                ; preds = %4
  call void @llvm.lifetime.end.p0(i64 4, ptr %3) #7
  br label %18

10:                                               ; preds = %4
  %11 = load i32, ptr %3, align 4, !tbaa !4
  %12 = load i32, ptr %3, align 4, !tbaa !4
  %13 = sext i32 %12 to i64
  %14 = getelementptr inbounds [100 x i32], ptr %2, i64 0, i64 %13
  store i32 %11, ptr %14, align 4, !tbaa !4
  br label %15

15:                                               ; preds = %10
  %16 = load i32, ptr %3, align 4, !tbaa !4
  %17 = add nsw i32 %16, 1
  store i32 %17, ptr %3, align 4, !tbaa !4
  br label %4

18:                                               ; preds = %9
  %19 = getelementptr inbounds [100 x i32], ptr %2, i64 0, i64 0
  %20 = getelementptr inbounds nuw %struct.Qureg, ptr %0, i32 0, i32 1
  %21 = load i32, ptr %20, align 4, !tbaa !18
  call void @agnostic_applyQFT(ptr noundef byval(%struct.Qureg) align 8 %0, ptr noundef %19, i32 noundef %21)
  call void (ptr, ptr, ...) @qasm_recordComment(ptr noundef byval(%struct.Qureg) align 8 %0, ptr noundef @.str.13)
  call void @llvm.lifetime.end.p0(i64 400, ptr %2) #7
  ret void
}