; Function Attrs: nounwind uwtable
define void @applyFullQFT(ptr noundef readonly byval(%struct.Qureg) align 8 captures(none) %0) local_unnamed_addr #0 {
  %2 = alloca [100 x i32], align 16
  tail call void (ptr, ptr, ...) @qasm_recordComment(ptr noundef nonnull byval(%struct.Qureg) align 8 %0, ptr noundef nonnull @.str.12) #17
  call void @llvm.lifetime.start.p0(i64 400, ptr nonnull %2) #17
  %3 = getelementptr inbounds nuw i8, ptr %0, i64 4
  %4 = load i32, ptr %3, align 4, !tbaa !17
  %5 = icmp sgt i32 %4, 0
  br i1 %5, label %.lr.ph.preheader, label %._crit_edge

.lr.ph.preheader:                                 ; preds = %1
  %wide.trip.count = zext nneg i32 %4 to i64
  br label %.lr.ph

._crit_edge:                                      ; preds = %.lr.ph, %1
  call void @agnostic_applyQFT(ptr noundef nonnull byval(%struct.Qureg) align 8 %0, ptr noundef nonnull %2, i32 noundef %4) #17
  call void (ptr, ptr, ...) @qasm_recordComment(ptr noundef nonnull byval(%struct.Qureg) align 8 %0, ptr noundef nonnull @.str.13) #17
  call void @llvm.lifetime.end.p0(i64 400, ptr nonnull %2) #17
  ret void

.lr.ph:                                           ; preds = %.lr.ph.preheader, %.lr.ph
  %indvars.iv = phi i64 [ 0, %.lr.ph.preheader ], [ %indvars.iv.next, %.lr.ph ]
  %6 = getelementptr inbounds nuw [100 x i32], ptr %2, i64 0, i64 %indvars.iv
  %7 = trunc nuw nsw i64 %indvars.iv to i32
  store i32 %7, ptr %6, align 4, !tbaa !20
  %indvars.iv.next = add nuw nsw i64 %indvars.iv, 1
  %exitcond.not = icmp eq i64 %indvars.iv.next, %wide.trip.count
  br i1 %exitcond.not, label %._crit_edge, label %.lr.ph
}